; Function Attrs: nounwind uwtable
define internal ptr @createfunc_nonmodule(ptr readnone captures(none) %0, ptr noundef readnone %1) #0 {
  %3 = icmp ne ptr %1, @def_nonmodule
  %4 = icmp ne ptr %1, @def_nonmodule_with_methods
  %or.cond = and i1 %3, %4
  br i1 %or.cond, label %5, label %7

5:                                                ; preds = %2
  %6 = load ptr, ptr @PyExc_SystemError, align 8, !tbaa !3
  tail call void @PyErr_SetString(ptr noundef %6, ptr noundef nonnull @.str.32) #4
  br label %Py_DECREF.exit18

7:                                                ; preds = %2
  %8 = tail call ptr @PyDict_New() #4
  %9 = icmp eq ptr %8, null
  br i1 %9, label %Py_DECREF.exit18, label %10

10:                                               ; preds = %7
  %11 = tail call ptr @PyLong_FromLong(i64 noundef 3) #4
  %12 = icmp eq ptr %11, null
  br i1 %12, label %13, label %19

13:                                               ; preds = %10
  %14 = load i32, ptr %8, align 8, !tbaa !8
  %.not.i17 = icmp sgt i32 %14, -1
  br i1 %.not.i17, label %15, label %Py_DECREF.exit18

15:                                               ; preds = %13
  %16 = add nsw i32 %14, -1
  store i32 %16, ptr %8, align 8, !tbaa !8
  %17 = icmp eq i32 %16, 0
  br i1 %17, label %18, label %Py_DECREF.exit18

18:                                               ; preds = %15
  tail call void @_Py_Dealloc(ptr noundef nonnull %8) #4
  br label %Py_DECREF.exit18

19:                                               ; preds = %10
  %20 = tail call i32 @PyDict_SetItemString(ptr noundef nonnull %8, ptr noundef nonnull @.str.33, ptr noundef nonnull %11) #4
  %21 = load i32, ptr %11, align 8, !tbaa !8
  %.not.i15 = icmp sgt i32 %21, -1
  br i1 %.not.i15, label %22, label %Py_DECREF.exit16

22:                                               ; preds = %19
  %23 = add nsw i32 %21, -1
  store i32 %23, ptr %11, align 8, !tbaa !8
  %24 = icmp eq i32 %23, 0
  br i1 %24, label %25, label %Py_DECREF.exit16

25:                                               ; preds = %22
  tail call void @_Py_Dealloc(ptr noundef nonnull %11) #4
  br label %Py_DECREF.exit16

Py_DECREF.exit16:                                 ; preds = %19, %22, %25
  %26 = tail call ptr @_PyNamespace_New(ptr noundef nonnull %8) #4
  %27 = load i32, ptr %8, align 8, !tbaa !8
  %.not.i = icmp sgt i32 %27, -1
  br i1 %.not.i, label %28, label %Py_DECREF.exit18

28:                                               ; preds = %Py_DECREF.exit16
  %29 = add nsw i32 %27, -1
  store i32 %29, ptr %8, align 8, !tbaa !8
  %30 = icmp eq i32 %29, 0
  br i1 %30, label %31, label %Py_DECREF.exit18

31:                                               ; preds = %28
  tail call void @_Py_Dealloc(ptr noundef nonnull %8) #4
  br label %Py_DECREF.exit18

Py_DECREF.exit18:                                 ; preds = %31, %28, %Py_DECREF.exit16, %18, %15, %13, %7, %5
  %.0 = phi ptr [ null, %5 ], [ null, %7 ], [ null, %13 ], [ null, %15 ], [ null, %18 ], [ %26, %Py_DECREF.exit16 ], [ %26, %28 ], [ %26, %31 ]
  ret ptr %.0
}